; Function Attrs: nounwind uwtable
define ptr @l_Lean_Compiler_LCNF_UnreachableBranches_Value_ofNat___boxed(ptr noundef %0) local_unnamed_addr #1 {
  %2 = load ptr, ptr @l_Lean_Compiler_LCNF_UnreachableBranches_Value_maxValueDepth, align 8, !tbaa !11
  %3 = ptrtoint ptr %2 to i64
  %4 = ptrtoint ptr %0 to i64
  %5 = and i64 %4, 1
  %6 = and i64 %5, %3
  %or.cond.not.i = icmp eq i64 %6, 0
  br i1 %or.cond.not.i, label %lean_nat_lt.exit.i, label %7, !prof !18

7:                                                ; preds = %1
  %8 = icmp ult ptr %2, %0
  br i1 %8, label %12, label %10

lean_nat_lt.exit.i:                               ; preds = %1
  %9 = tail call zeroext i1 @lean_nat_big_lt(ptr noundef %2, ptr noundef %0) #8
  br i1 %9, label %12, label %10

10:                                               ; preds = %lean_nat_lt.exit.i, %7
  %11 = tail call ptr @l_Lean_Compiler_LCNF_UnreachableBranches_Value_ofNat_goSmall(ptr noundef %0)
  br label %l_Lean_Compiler_LCNF_UnreachableBranches_Value_ofNat.exit

12:                                               ; preds = %lean_nat_lt.exit.i, %7
  %13 = tail call ptr @l_Lean_Compiler_LCNF_UnreachableBranches_Value_ofNat_goBig(ptr noundef %0, ptr noundef %0)
  br label %l_Lean_Compiler_LCNF_UnreachableBranches_Value_ofNat.exit

l_Lean_Compiler_LCNF_UnreachableBranches_Value_ofNat.exit: ; preds = %10, %12
  %.0.i = phi ptr [ %11, %10 ], [ %13, %12 ]
  %.not = icmp eq i64 %5, 0
  br i1 %.not, label %14, label %lean_dec.exit

14:                                               ; preds = %l_Lean_Compiler_LCNF_UnreachableBranches_Value_ofNat.exit
  %15 = load i32, ptr %0, align 4, !tbaa !4
  %16 = icmp sgt i32 %15, 1
  br i1 %16, label %17, label %19, !prof !13

17:                                               ; preds = %14
  %18 = add nsw i32 %15, -1
  store i32 %18, ptr %0, align 4, !tbaa !4
  br label %lean_dec.exit

19:                                               ; preds = %14
  %.not.i = icmp eq i32 %15, 0
  br i1 %.not.i, label %lean_dec.exit, label %20

20:                                               ; preds = %19
  tail call void @lean_dec_ref_cold(ptr noundef nonnull %0) #8
  br label %lean_dec.exit

lean_dec.exit:                                    ; preds = %20, %19, %17, %l_Lean_Compiler_LCNF_UnreachableBranches_Value_ofNat.exit
  ret ptr %.0.i
}